target datalayout = "e-m:e-p270:32:32-p271:32:32-p272:64:64-i64:64-i128:128-f80:128-n8:16:32:64-S128"
target triple = "x86_64-pc-linux-gnu"

%struct._zend_phpdbg_globals = type { [11 x %struct._zend_array], %struct._zend_array, %struct._zend_array, ptr, ptr, %struct.phpdbg_frame_t, i32, ptr, %struct.phpdbg_lexer_data, ptr, %struct.sigaction, i32, i64, %struct.phpdbg_btree, %struct.phpdbg_btree, %struct._zend_array, %struct._zend_array, %struct._zend_array, %struct._zend_array, ptr, ptr, i8, ptr, ptr, ptr, i64, ptr, %struct._zval_struct, i32, i32, i8, i8, ptr, ptr, ptr, %struct._zend_array, ptr, ptr, ptr, [3 x %struct.anon.8], ptr, %struct.anon.9, i64, [2 x ptr], [3 x ptr], ptr, i8, ptr, ptr, [500 x i8], i32, %struct.phpdbg_signal_safe_mem, ptr, i64, ptr, i64 }
%struct.phpdbg_frame_t = type { i32, ptr, ptr }
%struct.phpdbg_lexer_data = type { i32, ptr, ptr, ptr, ptr, i32 }
%struct.sigaction = type { %union.anon.2, %struct.__sigset_t, i32, ptr }
%union.anon.2 = type { ptr }
%struct.__sigset_t = type { [16 x i64] }
%struct.phpdbg_btree = type { i64, i64, i8, ptr }
%struct._zval_struct = type { %union._zend_value, %union.anon.4, %union.anon.7 }
%union._zend_value = type { i64 }
%union.anon.4 = type { i32 }
%union.anon.7 = type { i32 }
%struct._zend_array = type { %struct._zend_refcounted_h, %union.anon.0, i32, %union.anon.1, i32, i32, i32, i32, i64, ptr }
%struct._zend_refcounted_h = type { i32, %union.anon }
%union.anon = type { i32 }
%union.anon.0 = type { i32 }
%union.anon.1 = type { ptr }
%struct.anon.8 = type { i32 }
%struct.anon.9 = type { i8, i32, i32, ptr, i32 }
%struct.phpdbg_signal_safe_mem = type { ptr, i8, ptr, ptr }
%struct._phpdbg_breakbase_t = type { i32, i8, i64, i8, ptr }
%struct._Bucket = type { %struct._zval_struct, i64, ptr }
%struct._phpdbg_breakopline_t = type { i32, i8, i64, i8, ptr, i64, ptr, i64, i64, i64 }

@phpdbg_globals = external global %struct._zend_phpdbg_globals, align 8
@.str.47 = private unnamed_addr constant [24 x i8] c"Deleted breakpoint #%lu\00", align 1
@.str.48 = private unnamed_addr constant [31 x i8] c"Failed to find breakpoint #%lu\00", align 1

; Function Attrs: nounwind uwtable
define ptr @phpdbg_find_breakbase_ex(i64 noundef %0, ptr noundef %1, ptr noundef %2, ptr noundef %3) #0 {
  %5 = alloca ptr, align 8
  %6 = alloca ptr, align 8
  %7 = alloca i64, align 8
  %8 = alloca ptr, align 8
  %9 = alloca ptr, align 8
  %10 = alloca ptr, align 8
  %11 = alloca i64, align 8
  %12 = alloca ptr, align 8
  %13 = alloca ptr, align 8
  %14 = alloca ptr, align 8
  %15 = alloca ptr, align 8
  %16 = alloca ptr, align 8
  %17 = alloca i64, align 8
  %18 = alloca ptr, align 8
  %19 = alloca i32, align 4
  %20 = alloca i64, align 8
  %21 = alloca ptr, align 8
  %22 = alloca i32, align 4
  %23 = alloca ptr, align 8
  %24 = alloca ptr, align 8
  store i64 %0, ptr %11, align 8
  store ptr %1, ptr %12, align 8
  store ptr %2, ptr %13, align 8
  store ptr %3, ptr %14, align 8
  %25 = load i64, ptr %11, align 8
  store ptr getelementptr inbounds ([11 x %struct._zend_array], ptr @phpdbg_globals, i64 0, i64 10), ptr %6, align 8
  store i64 %25, ptr %7, align 8
  %26 = load ptr, ptr %6, align 8
  %27 = load i64, ptr %7, align 8
  %28 = call ptr @zend_hash_index_find(ptr noundef %26, i64 noundef %27) #11
  store ptr %28, ptr %8, align 8
  %29 = load ptr, ptr %8, align 8
  %30 = icmp ne ptr %29, null
  br i1 %30, label %31, label %37

31:                                               ; preds = %4
  %32 = load ptr, ptr %8, align 8
  %33 = load ptr, ptr %32, align 8
  %34 = icmp ne ptr %33, null
  call void @llvm.assume(i1 %34)
  %35 = load ptr, ptr %8, align 8
  %36 = load ptr, ptr %35, align 8
  store ptr %36, ptr %5, align 8
  br label %38

37:                                               ; preds = %4
  store ptr null, ptr %5, align 8
  br label %38

38:                                               ; preds = %37, %31
  %39 = load ptr, ptr %5, align 8
  %40 = load ptr, ptr %12, align 8
  store ptr %39, ptr %40, align 8
  %41 = icmp ne ptr %39, null
  br i1 %41, label %42, label %130

42:                                               ; preds = %38
  br label %43

43:                                               ; preds = %42
  %44 = load ptr, ptr %12, align 8
  %45 = load ptr, ptr %44, align 8
  store ptr %45, ptr %16, align 8
  store ptr null, ptr %18, align 8
  store i32 0, ptr %19, align 4
  %46 = load ptr, ptr %16, align 8
  %47 = getelementptr inbounds %struct._zend_array, ptr %46, i32 0, i32 1
  %48 = load i32, ptr %47, align 8
  %49 = xor i32 %48, -1
  %50 = and i32 %49, 4
  %51 = zext i32 %50 to i64
  %52 = mul i64 %51, 4
  %53 = add i64 16, %52
  store i64 %53, ptr %20, align 8
  %54 = load ptr, ptr %16, align 8
  %55 = getelementptr inbounds %struct._zend_array, ptr %54, i32 0, i32 3
  %56 = load ptr, ptr %55, align 8
  %57 = load i32, ptr %19, align 4
  %58 = zext i32 %57 to i64
  %59 = load i64, ptr %20, align 8
  %60 = mul i64 %58, %59
  %61 = getelementptr inbounds i8, ptr %56, i64 %60
  store ptr %61, ptr %21, align 8
  %62 = load ptr, ptr %16, align 8
  %63 = getelementptr inbounds %struct._zend_array, ptr %62, i32 0, i32 4
  %64 = load i32, ptr %63, align 8
  %65 = load i32, ptr %19, align 4
  %66 = sub i32 %64, %65
  store i32 %66, ptr %22, align 4
  br label %67

67:                                               ; preds = %125, %43
  %68 = load i32, ptr %22, align 4
  %69 = icmp ugt i32 %68, 0
  br i1 %69, label %70, label %128

70:                                               ; preds = %67
  %71 = load ptr, ptr %21, align 8
  store ptr %71, ptr %23, align 8
  %72 = load ptr, ptr %16, align 8
  %73 = getelementptr inbounds %struct._zend_array, ptr %72, i32 0, i32 1
  %74 = load i32, ptr %73, align 8
  %75 = and i32 %74, 4
  %76 = icmp ne i32 %75, 0
  br i1 %76, label %77, label %84

77:                                               ; preds = %70
  %78 = load ptr, ptr %21, align 8
  %79 = getelementptr inbounds %struct._zval_struct, ptr %78, i32 1
  store ptr %79, ptr %21, align 8
  %80 = load i32, ptr %19, align 4
  %81 = zext i32 %80 to i64
  store i64 %81, ptr %17, align 8
  %82 = load i32, ptr %19, align 4
  %83 = add i32 %82, 1
  store i32 %83, ptr %19, align 4
  br label %95

84:                                               ; preds = %70
  %85 = load ptr, ptr %21, align 8
  store ptr %85, ptr %24, align 8
  %86 = load ptr, ptr %24, align 8
  %87 = getelementptr inbounds %struct._Bucket, ptr %86, i64 1
  %88 = getelementptr inbounds %struct._Bucket, ptr %87, i32 0, i32 0
  store ptr %88, ptr %21, align 8
  %89 = load ptr, ptr %24, align 8
  %90 = getelementptr inbounds %struct._Bucket, ptr %89, i32 0, i32 1
  %91 = load i64, ptr %90, align 8
  store i64 %91, ptr %17, align 8
  %92 = load ptr, ptr %24, align 8
  %93 = getelementptr inbounds %struct._Bucket, ptr %92, i32 0, i32 2
  %94 = load ptr, ptr %93, align 8
  store ptr %94, ptr %18, align 8
  br label %95

95:                                               ; preds = %84, %77
  %96 = load ptr, ptr %23, align 8
  store ptr %96, ptr %9, align 8
  %97 = load ptr, ptr %9, align 8
  %98 = getelementptr inbounds %struct._zval_struct, ptr %97, i32 0, i32 1
  %99 = load i8, ptr %98, align 8
  %100 = zext i8 %99 to i32
  %101 = icmp eq i32 %100, 0
  %102 = xor i1 %101, true
  %103 = xor i1 %102, true
  %104 = zext i1 %103 to i32
  %105 = sext i32 %104 to i64
  %106 = icmp ne i64 %105, 0
  br i1 %106, label %107, label %108

107:                                              ; preds = %95
  br label %125

108:                                              ; preds = %95
  %109 = load i64, ptr %17, align 8
  %110 = load ptr, ptr %13, align 8
  store i64 %109, ptr %110, align 8
  %111 = load ptr, ptr %18, align 8
  %112 = load ptr, ptr %14, align 8
  store ptr %111, ptr %112, align 8
  %113 = load ptr, ptr %23, align 8
  %114 = getelementptr inbounds %struct._zval_struct, ptr %113, i32 0, i32 0
  %115 = load ptr, ptr %114, align 8
  store ptr %115, ptr %15, align 8
  %116 = load ptr, ptr %15, align 8
  %117 = getelementptr inbounds %struct._phpdbg_breakbase_t, ptr %116, i32 0, i32 0
  %118 = load i32, ptr %117, align 8
  %119 = sext i32 %118 to i64
  %120 = load i64, ptr %11, align 8
  %121 = icmp eq i64 %119, %120
  br i1 %121, label %122, label %124

122:                                              ; preds = %108
  %123 = load ptr, ptr %15, align 8
  store ptr %123, ptr %10, align 8
  br label %131

124:                                              ; preds = %108
  br label %125

125:                                              ; preds = %124, %107
  %126 = load i32, ptr %22, align 4
  %127 = add i32 %126, -1
  store i32 %127, ptr %22, align 4
  br label %67

128:                                              ; preds = %67
  br label %129

129:                                              ; preds = %128
  br label %130

130:                                              ; preds = %129, %38
  store ptr null, ptr %10, align 8
  br label %131

131:                                              ; preds = %130, %122
  %132 = load ptr, ptr %10, align 8
  ret ptr %132
}

; Function Attrs: nounwind uwtable
define void @phpdbg_delete_breakpoint(i64 noundef %0) #0 {
  %2 = alloca ptr, align 8
  %3 = alloca ptr, align 8
  %4 = alloca ptr, align 8
  %5 = alloca ptr, align 8
  %6 = alloca i64, align 8
  %7 = alloca ptr, align 8
  %8 = alloca ptr, align 8
  %9 = alloca ptr, align 8
  %10 = alloca i64, align 8
  %11 = alloca i32, align 4
  %12 = alloca ptr, align 8
  %13 = alloca i64, align 8
  store i64 %0, ptr %6, align 8
  %14 = load i64, ptr %6, align 8
  %15 = call ptr @phpdbg_find_breakbase_ex(i64 noundef %14, ptr noundef %7, ptr noundef %10, ptr noundef %9)
  store ptr %15, ptr %8, align 8
  %16 = icmp ne ptr %15, null
  br i1 %16, label %17, label %120

17:                                               ; preds = %1
  %18 = load ptr, ptr %8, align 8
  %19 = getelementptr inbounds %struct._phpdbg_breakbase_t, ptr %18, i32 0, i32 1
  %20 = load i8, ptr %19, align 4
  %21 = zext i8 %20 to i32
  store i32 %21, ptr %11, align 4
  store ptr null, ptr %12, align 8
  store i64 0, ptr %13, align 8
  %22 = load i32, ptr %11, align 4
  switch i32 %22, label %56 [
    i32 0, label %23
    i32 4, label %23
  ]

23:                                               ; preds = %17, %17
  %24 = load ptr, ptr %7, align 8
  store ptr %24, ptr %2, align 8
  %25 = load ptr, ptr %2, align 8
  %26 = getelementptr inbounds %struct._zend_array, ptr %25, i32 0, i32 5
  %27 = load i32, ptr %26, align 4
  %28 = icmp eq i32 %27, 1
  br i1 %28, label %29, label %55

29:                                               ; preds = %23
  %30 = load ptr, ptr %8, align 8
  %31 = getelementptr inbounds %struct._phpdbg_breakbase_t, ptr %30, i32 0, i32 4
  %32 = load ptr, ptr %31, align 8
  %33 = call noalias ptr @_estrdup(ptr noundef %32)
  store ptr %33, ptr %12, align 8
  %34 = load ptr, ptr %12, align 8
  %35 = call i64 @strlen(ptr noundef %34) #10
  store i64 %35, ptr %13, align 8
  %36 = load i32, ptr %11, align 4
  %37 = sext i32 %36 to i64
  %38 = getelementptr inbounds [11 x %struct._zend_array], ptr @phpdbg_globals, i64 0, i64 %37
  store ptr %38, ptr %3, align 8
  %39 = load ptr, ptr %3, align 8
  %40 = getelementptr inbounds %struct._zend_array, ptr %39, i32 0, i32 5
  %41 = load i32, ptr %40, align 4
  %42 = icmp eq i32 %41, 1
  br i1 %42, label %43, label %54

43:                                               ; preds = %29
  %44 = load ptr, ptr %8, align 8
  %45 = getelementptr inbounds %struct._phpdbg_breakbase_t, ptr %44, i32 0, i32 1
  %46 = load i8, ptr %45, align 4
  %47 = zext i8 %46 to i32
  %48 = add nsw i32 %47, 1
  %49 = shl i32 1, %48
  %50 = xor i32 %49, -1
  %51 = sext i32 %50 to i64
  %52 = load i64, ptr getelementptr inbounds (%struct._zend_phpdbg_globals, ptr @phpdbg_globals, i32 0, i32 53), align 8
  %53 = and i64 %52, %51
  store i64 %53, ptr getelementptr inbounds (%struct._zend_phpdbg_globals, ptr @phpdbg_globals, i32 0, i32 53), align 8
  br label %54

54:                                               ; preds = %43, %29
  br label %55

55:                                               ; preds = %54, %23
  br label %74

56:                                               ; preds = %17
  %57 = load ptr, ptr %7, align 8
  store ptr %57, ptr %4, align 8
  %58 = load ptr, ptr %4, align 8
  %59 = getelementptr inbounds %struct._zend_array, ptr %58, i32 0, i32 5
  %60 = load i32, ptr %59, align 4
  %61 = icmp eq i32 %60, 1
  br i1 %61, label %62, label %73

62:                                               ; preds = %56
  %63 = load ptr, ptr %8, align 8
  %64 = getelementptr inbounds %struct._phpdbg_breakbase_t, ptr %63, i32 0, i32 1
  %65 = load i8, ptr %64, align 4
  %66 = zext i8 %65 to i32
  %67 = add nsw i32 %66, 1
  %68 = shl i32 1, %67
  %69 = xor i32 %68, -1
  %70 = sext i32 %69 to i64
  %71 = load i64, ptr getelementptr inbounds (%struct._zend_phpdbg_globals, ptr @phpdbg_globals, i32 0, i32 53), align 8
  %72 = and i64 %71, %70
  store i64 %72, ptr getelementptr inbounds (%struct._zend_phpdbg_globals, ptr @phpdbg_globals, i32 0, i32 53), align 8
  br label %73

73:                                               ; preds = %62, %56
  br label %74

74:                                               ; preds = %73, %55
  %75 = load i32, ptr %11, align 4
  switch i32 %75, label %89 [
    i32 9, label %76
    i32 7, label %76
    i32 8, label %76
  ]

76:                                               ; preds = %74, %74, %74
  store ptr getelementptr inbounds ([11 x %struct._zend_array], ptr @phpdbg_globals, i64 0, i64 3), ptr %5, align 8
  %77 = load ptr, ptr %5, align 8
  %78 = getelementptr inbounds %struct._zend_array, ptr %77, i32 0, i32 5
  %79 = load i32, ptr %78, align 4
  %80 = icmp eq i32 %79, 1
  br i1 %80, label %81, label %84

81:                                               ; preds = %76
  %82 = load i64, ptr getelementptr inbounds (%struct._zend_phpdbg_globals, ptr @phpdbg_globals, i32 0, i32 53), align 8
  %83 = and i64 %82, 16
  store i64 %83, ptr getelementptr inbounds (%struct._zend_phpdbg_globals, ptr @phpdbg_globals, i32 0, i32 53), align 8
  br label %84

84:                                               ; preds = %81, %76
  %85 = load ptr, ptr %8, align 8
  %86 = getelementptr inbounds %struct._phpdbg_breakopline_t, ptr %85, i32 0, i32 9
  %87 = load i64, ptr %86, align 8
  %88 = call i32 @zend_hash_index_del(ptr noundef getelementptr inbounds ([11 x %struct._zend_array], ptr @phpdbg_globals, i64 0, i64 3), i64 noundef %87)
  br label %89

89:                                               ; preds = %84, %74
  %90 = load ptr, ptr %9, align 8
  %91 = icmp ne ptr %90, null
  br i1 %91, label %92, label %96

92:                                               ; preds = %89
  %93 = load ptr, ptr %7, align 8
  %94 = load ptr, ptr %9, align 8
  %95 = call i32 @zend_hash_del(ptr noundef %93, ptr noundef %94)
  br label %100

96:                                               ; preds = %89
  %97 = load ptr, ptr %7, align 8
  %98 = load i64, ptr %10, align 8
  %99 = call i32 @zend_hash_index_del(ptr noundef %97, i64 noundef %98)
  br label %100

100:                                              ; preds = %96, %92
  %101 = load i32, ptr %11, align 4
  switch i32 %101, label %114 [
    i32 0, label %102
    i32 4, label %102
  ]

102:                                              ; preds = %100, %100
  %103 = load ptr, ptr %12, align 8
  %104 = icmp ne ptr %103, null
  br i1 %104, label %105, label %113

105:                                              ; preds = %102
  %106 = load i32, ptr %11, align 4
  %107 = sext i32 %106 to i64
  %108 = getelementptr inbounds [11 x %struct._zend_array], ptr @phpdbg_globals, i64 0, i64 %107
  %109 = load ptr, ptr %12, align 8
  %110 = load i64, ptr %13, align 8
  %111 = call i32 @zend_hash_str_del(ptr noundef %108, ptr noundef %109, i64 noundef %110)
  %112 = load ptr, ptr %12, align 8
  call void @_efree(ptr noundef %112)
  br label %113

113:                                              ; preds = %105, %102
  br label %114

114:                                              ; preds = %113, %100
  %115 = load i32, ptr getelementptr inbounds (%struct._zend_phpdbg_globals, ptr @phpdbg_globals, i32 0, i32 39, i64 1), align 4
  %116 = load i64, ptr %6, align 8
  %117 = call i32 (i32, i32, ptr, ...) @phpdbg_print(i32 noundef 2, i32 noundef %115, ptr noundef @.str.47, i64 noundef %116)
  %118 = load i64, ptr %6, align 8
  %119 = call i32 @zend_hash_index_del(ptr noundef getelementptr inbounds ([11 x %struct._zend_array], ptr @phpdbg_globals, i64 0, i64 10), i64 noundef %118)
  br label %124

120:                                              ; preds = %1
  %121 = load i32, ptr getelementptr inbounds (%struct._zend_phpdbg_globals, ptr @phpdbg_globals, i32 0, i32 39, i64 1), align 4
  %122 = load i64, ptr %6, align 8
  %123 = call i32 (i32, i32, ptr, ...) @phpdbg_print(i32 noundef 1, i32 noundef %121, ptr noundef @.str.48, i64 noundef %122)
  br label %124

124:                                              ; preds = %120, %114
  ret void
}