; Function Attrs: nounwind uwtable
define void @phpdbg_delete_breakpoint(i64 noundef %0) local_unnamed_addr #1 {
  %2 = tail call ptr @zend_hash_index_find(ptr noundef nonnull getelementptr inbounds (%struct._zend_phpdbg_globals, ptr @phpdbg_globals, i64 0, i32 0, i64 10), i64 noundef %0) #14
  %.not.i = icmp eq ptr %2, null
  br i1 %.not.i, label %.loopexit, label %3

3:                                                ; preds = %1
  %4 = load ptr, ptr %2, align 8, !nonnull !4, !noundef !4
  %5 = getelementptr inbounds i8, ptr %4, i64 24
  %6 = load i32, ptr %5, align 8
  %.not4650.i = icmp eq i32 %6, 0
  br i1 %.not4650.i, label %.loopexit, label %.lr.ph.preheader.i

.lr.ph.preheader.i:                               ; preds = %3
  %7 = getelementptr inbounds i8, ptr %4, i64 8
  %8 = getelementptr inbounds i8, ptr %4, i64 16
  %9 = load ptr, ptr %8, align 8
  %10 = load i32, ptr %7, align 8
  %11 = and i32 %10, 4
  %.not47.i = icmp eq i32 %11, 0
  br i1 %.not47.i, label %.lr.ph.i.us, label %.lr.ph.i

.lr.ph.i.us:                                      ; preds = %.lr.ph.preheader.i, %21
  %.03754.i.us = phi i32 [ %22, %21 ], [ %6, %.lr.ph.preheader.i ]
  %.03853.i.us = phi ptr [ %12, %21 ], [ %9, %.lr.ph.preheader.i ]
  %12 = getelementptr inbounds i8, ptr %.03853.i.us, i64 32
  %13 = getelementptr inbounds i8, ptr %.03853.i.us, i64 8
  %14 = load i8, ptr %13, align 8
  %15 = icmp eq i8 %14, 0
  br i1 %15, label %21, label %16

16:                                               ; preds = %.lr.ph.i.us
  %17 = load ptr, ptr %.03853.i.us, align 8
  %18 = load i32, ptr %17, align 8
  %19 = sext i32 %18 to i64
  %20 = icmp eq i64 %19, %0
  br i1 %20, label %phpdbg_find_breakbase_ex.exit.split.us, label %21

21:                                               ; preds = %16, %.lr.ph.i.us
  %22 = add i32 %.03754.i.us, -1
  %.not46.i.us = icmp eq i32 %22, 0
  br i1 %.not46.i.us, label %.loopexit, label %.lr.ph.i.us

phpdbg_find_breakbase_ex.exit.split.us:           ; preds = %16
  %23 = getelementptr inbounds i8, ptr %.03853.i.us, i64 16
  %24 = load i64, ptr %23, align 8
  %25 = getelementptr inbounds i8, ptr %.03853.i.us, i64 24
  %26 = load ptr, ptr %25, align 8
  br label %phpdbg_find_breakbase_ex.exit

.lr.ph.i:                                         ; preds = %.lr.ph.preheader.i, %37
  %.03754.i = phi i32 [ %38, %37 ], [ %6, %.lr.ph.preheader.i ]
  %.03853.i = phi ptr [ %27, %37 ], [ %9, %.lr.ph.preheader.i ]
  %.04052.i = phi i32 [ %28, %37 ], [ 0, %.lr.ph.preheader.i ]
  %27 = getelementptr inbounds i8, ptr %.03853.i, i64 16
  %28 = add nuw i32 %.04052.i, 1
  %29 = getelementptr inbounds i8, ptr %.03853.i, i64 8
  %30 = load i8, ptr %29, align 8
  %31 = icmp eq i8 %30, 0
  br i1 %31, label %37, label %32

32:                                               ; preds = %.lr.ph.i
  %33 = load ptr, ptr %.03853.i, align 8
  %34 = load i32, ptr %33, align 8
  %35 = sext i32 %34 to i64
  %36 = icmp eq i64 %35, %0
  br i1 %36, label %phpdbg_find_breakbase_ex.exit.split, label %37

37:                                               ; preds = %32, %.lr.ph.i
  %38 = add i32 %.03754.i, -1
  %.not46.i = icmp eq i32 %38, 0
  br i1 %.not46.i, label %.loopexit, label %.lr.ph.i

phpdbg_find_breakbase_ex.exit.split:              ; preds = %32
  %39 = zext i32 %.04052.i to i64
  br label %phpdbg_find_breakbase_ex.exit

phpdbg_find_breakbase_ex.exit:                    ; preds = %phpdbg_find_breakbase_ex.exit.split.us, %phpdbg_find_breakbase_ex.exit.split
  %.us-phi = phi ptr [ null, %phpdbg_find_breakbase_ex.exit.split ], [ %26, %phpdbg_find_breakbase_ex.exit.split.us ]
  %.us-phi49 = phi i64 [ %39, %phpdbg_find_breakbase_ex.exit.split ], [ %24, %phpdbg_find_breakbase_ex.exit.split.us ]
  %.us-phi50 = phi ptr [ %33, %phpdbg_find_breakbase_ex.exit.split ], [ %17, %phpdbg_find_breakbase_ex.exit.split.us ]
  %40 = getelementptr inbounds i8, ptr %.us-phi50, i64 4
  %41 = load i8, ptr %40, align 4
  %42 = zext nneg i8 %41 to i32
  switch i8 %41, label %64 [
    i8 0, label %43
    i8 4, label %43
  ]

43:                                               ; preds = %phpdbg_find_breakbase_ex.exit, %phpdbg_find_breakbase_ex.exit
  %44 = getelementptr inbounds i8, ptr %4, i64 28
  %45 = load i32, ptr %44, align 4
  %46 = icmp eq i32 %45, 1
  br i1 %46, label %47, label %.thread

47:                                               ; preds = %43
  %48 = getelementptr inbounds i8, ptr %.us-phi50, i64 24
  %49 = load ptr, ptr %48, align 8
  %50 = tail call noalias ptr @_estrdup(ptr noundef %49) #14
  %51 = tail call i64 @strlen(ptr noundef nonnull dereferenceable(1) %50) #15
  %52 = zext nneg i8 %41 to i64
  %53 = getelementptr inbounds [11 x %struct._zend_array], ptr @phpdbg_globals, i64 0, i64 %52, i32 5
  %54 = load i32, ptr %53, align 4
  %55 = icmp eq i32 %54, 1
  br i1 %55, label %56, label %.thread

56:                                               ; preds = %47
  %57 = load i8, ptr %40, align 4
  %58 = zext nneg i8 %57 to i32
  %59 = shl nuw i32 2, %58
  %60 = xor i32 %59, -1
  %61 = sext i32 %60 to i64
  %62 = load i64, ptr getelementptr inbounds (%struct._zend_phpdbg_globals, ptr @phpdbg_globals, i64 0, i32 53), align 8
  %63 = and i64 %62, %61
  store i64 %63, ptr getelementptr inbounds (%struct._zend_phpdbg_globals, ptr @phpdbg_globals, i64 0, i32 53), align 8
  br label %.thread

64:                                               ; preds = %phpdbg_find_breakbase_ex.exit
  %65 = getelementptr inbounds i8, ptr %4, i64 28
  %66 = load i32, ptr %65, align 4
  %67 = icmp eq i32 %66, 1
  br i1 %67, label %68, label %74

68:                                               ; preds = %64
  %69 = shl nuw i32 2, %42
  %70 = xor i32 %69, -1
  %71 = sext i32 %70 to i64
  %72 = load i64, ptr getelementptr inbounds (%struct._zend_phpdbg_globals, ptr @phpdbg_globals, i64 0, i32 53), align 8
  %73 = and i64 %72, %71
  store i64 %73, ptr getelementptr inbounds (%struct._zend_phpdbg_globals, ptr @phpdbg_globals, i64 0, i32 53), align 8
  br label %74

74:                                               ; preds = %64, %68
  %.off = add i8 %41, -7
  %switch = icmp ult i8 %.off, 3
  br i1 %switch, label %75, label %.thread

75:                                               ; preds = %74
  %76 = load i32, ptr getelementptr inbounds (%struct._zend_phpdbg_globals, ptr @phpdbg_globals, i64 0, i32 0, i64 3, i32 5), align 4
  %77 = icmp eq i32 %76, 1
  br i1 %77, label %78, label %81

78:                                               ; preds = %75
  %79 = load i64, ptr getelementptr inbounds (%struct._zend_phpdbg_globals, ptr @phpdbg_globals, i64 0, i32 53), align 8
  %80 = and i64 %79, 16
  store i64 %80, ptr getelementptr inbounds (%struct._zend_phpdbg_globals, ptr @phpdbg_globals, i64 0, i32 53), align 8
  br label %81

81:                                               ; preds = %78, %75
  %82 = getelementptr inbounds i8, ptr %.us-phi50, i64 64
  %83 = load i64, ptr %82, align 8
  %84 = tail call i32 @zend_hash_index_del(ptr noundef nonnull getelementptr inbounds (%struct._zend_phpdbg_globals, ptr @phpdbg_globals, i64 0, i32 0, i64 3), i64 noundef %83) #14
  br label %.thread

.thread:                                          ; preds = %47, %56, %43, %74, %81
  %.046 = phi i64 [ 0, %74 ], [ 0, %81 ], [ 0, %43 ], [ %51, %47 ], [ %51, %56 ]
  %.02245 = phi ptr [ null, %74 ], [ null, %81 ], [ null, %43 ], [ %50, %47 ], [ %50, %56 ]
  %.not25 = icmp eq ptr %.us-phi, null
  br i1 %.not25, label %87, label %85

85:                                               ; preds = %.thread
  %86 = tail call i32 @zend_hash_del(ptr noundef nonnull %4, ptr noundef nonnull %.us-phi) #14
  br label %89

87:                                               ; preds = %.thread
  %88 = tail call i32 @zend_hash_index_del(ptr noundef nonnull %4, i64 noundef %.us-phi49) #14
  br label %89

89:                                               ; preds = %87, %85
  switch i8 %41, label %95 [
    i8 0, label %90
    i8 4, label %90
  ]

90:                                               ; preds = %89, %89
  %.not26 = icmp eq ptr %.02245, null
  br i1 %.not26, label %95, label %91

91:                                               ; preds = %90
  %92 = zext nneg i8 %41 to i64
  %93 = getelementptr inbounds [11 x %struct._zend_array], ptr @phpdbg_globals, i64 0, i64 %92
  %94 = tail call i32 @zend_hash_str_del(ptr noundef nonnull %93, ptr noundef nonnull %.02245, i64 noundef %.046) #14
  tail call void @_efree(ptr noundef nonnull %.02245) #14
  br label %95

95:                                               ; preds = %90, %91, %89
  %96 = load i32, ptr getelementptr inbounds (%struct._zend_phpdbg_globals, ptr @phpdbg_globals, i64 0, i32 39, i64 1), align 4
  %97 = tail call i32 (i32, i32, ptr, ...) @phpdbg_print(i32 noundef 2, i32 noundef %96, ptr noundef nonnull @.str.47, i64 noundef %0) #14
  %98 = tail call i32 @zend_hash_index_del(ptr noundef nonnull getelementptr inbounds (%struct._zend_phpdbg_globals, ptr @phpdbg_globals, i64 0, i32 0, i64 10), i64 noundef %0) #14
  br label %101

.loopexit:                                        ; preds = %37, %21, %3, %1
  %99 = load i32, ptr getelementptr inbounds (%struct._zend_phpdbg_globals, ptr @phpdbg_globals, i64 0, i32 39, i64 1), align 4
  %100 = tail call i32 (i32, i32, ptr, ...) @phpdbg_print(i32 noundef 1, i32 noundef %99, ptr noundef nonnull @.str.48, i64 noundef %0) #14
  br label %101

101:                                              ; preds = %.loopexit, %95
  ret void
}